; Function Attrs: nounwind uwtable
define range(i64 -1, -9223372036854775808) i64 @H5Aopen_by_name(i64 noundef %0, ptr noundef %1, ptr noundef %2, i64 noundef %3, i64 noundef %4) local_unnamed_addr #0 {
  %6 = load i8, ptr @H5_libinit_g, align 1
  %7 = trunc i8 %6 to i1
  %8 = load i8, ptr @H5_libterm_g, align 1
  %9 = trunc i8 %8 to i1
  %10 = select i1 %7, i1 true, i1 %9
  br i1 %10, label %18, label %11

11:                                               ; preds = %5
  %12 = tail call i32 @H5_init_library() #4
  %13 = icmp slt i32 %12, 0
  br i1 %13, label %14, label %18

14:                                               ; preds = %11
  %15 = load i64, ptr @H5E_FUNC_g, align 8
  %16 = load i64, ptr @H5E_CANTINIT_g, align 8
  %17 = tail call i32 (ptr, ptr, i32, i64, i64, ptr, ...) @H5E_printf_stack(ptr noundef nonnull @.str, ptr noundef nonnull @__func__.H5Aopen_by_name, i32 noundef 661, i64 noundef %15, i64 noundef %16, ptr noundef nonnull @.str.1) #4
  br label %.thread21

18:                                               ; preds = %11, %5
  %19 = tail call i32 @H5CX_push() #4
  %20 = icmp slt i32 %19, 0
  br i1 %20, label %21, label %25

21:                                               ; preds = %18
  %22 = load i64, ptr @H5E_FUNC_g, align 8
  %23 = load i64, ptr @H5E_CANTSET_g, align 8
  %24 = tail call i32 (ptr, ptr, i32, i64, i64, ptr, ...) @H5E_printf_stack(ptr noundef nonnull @.str, ptr noundef nonnull @__func__.H5Aopen_by_name, i32 noundef 661, i64 noundef %22, i64 noundef %23, ptr noundef nonnull @.str.2) #4
  br label %.thread21

25:                                               ; preds = %18
  %26 = tail call i32 @H5E_clear_stack() #4
  %27 = tail call fastcc i64 @H5A__open_by_name_api_common(i64 noundef %0, ptr noundef %1, ptr noundef %2, i64 noundef %3, i64 noundef %4, ptr noundef null, ptr noundef null)
  %28 = icmp slt i64 %27, 0
  br i1 %28, label %.thread26, label %33

.thread26:                                        ; preds = %25
  %29 = load i64, ptr @H5E_ATTR_g, align 8
  %30 = load i64, ptr @H5E_CANTOPENOBJ_g, align 8
  %31 = tail call i32 (ptr, ptr, i32, i64, i64, ptr, ...) @H5E_printf_stack(ptr noundef nonnull @.str, ptr noundef nonnull @__func__.H5Aopen_by_name, i32 noundef 666, i64 noundef %29, i64 noundef %30, ptr noundef nonnull @.str.21) #4
  %32 = tail call i32 @H5CX_pop(i1 noundef zeroext true) #4
  br label %.thread21

33:                                               ; preds = %25
  %34 = tail call i32 @H5CX_pop(i1 noundef zeroext true) #4
  br label %36

.thread21:                                        ; preds = %21, %14, %.thread26
  %35 = tail call i32 @H5E_dump_api_stack() #4
  br label %36

36:                                               ; preds = %33, %.thread21
  %.0111624 = phi i64 [ -1, %.thread21 ], [ %27, %33 ]
  ret i64 %.0111624
}